target datalayout = "e-m:e-p270:32:32-p271:32:32-p272:64:64-i64:64-i128:128-f80:128-n8:16:32:64-S128"
target triple = "x86_64-pc-linux-gnu"

%struct._generic_N_Vector = type { ptr, ptr, ptr }
%struct._N_VectorContent_Serial = type { i64, i32, ptr }

; Function Attrs: nounwind uwtable
define double @N_VMin_Serial(ptr noundef %0) #0 {
  %2 = alloca ptr, align 8
  %3 = alloca i64, align 8
  %4 = alloca i64, align 8
  %5 = alloca double, align 8
  %6 = alloca ptr, align 8
  store ptr %0, ptr %2, align 8, !tbaa !10
  call void @llvm.lifetime.start.p0(i64 8, ptr %3) #6
  call void @llvm.lifetime.start.p0(i64 8, ptr %4) #6
  call void @llvm.lifetime.start.p0(i64 8, ptr %5) #6
  call void @llvm.lifetime.start.p0(i64 8, ptr %6) #6
  store ptr null, ptr %6, align 8, !tbaa !69
  %7 = load ptr, ptr %2, align 8, !tbaa !10
  %8 = getelementptr inbounds nuw %struct._generic_N_Vector, ptr %7, i32 0, i32 0
  %9 = load ptr, ptr %8, align 8, !tbaa !61
  %10 = getelementptr inbounds nuw %struct._N_VectorContent_Serial, ptr %9, i32 0, i32 0
  %11 = load i64, ptr %10, align 8, !tbaa !62
  store i64 %11, ptr %4, align 8, !tbaa !3
  %12 = load ptr, ptr %2, align 8, !tbaa !10
  %13 = getelementptr inbounds nuw %struct._generic_N_Vector, ptr %12, i32 0, i32 0
  %14 = load ptr, ptr %13, align 8, !tbaa !61
  %15 = getelementptr inbounds nuw %struct._N_VectorContent_Serial, ptr %14, i32 0, i32 2
  %16 = load ptr, ptr %15, align 8, !tbaa !67
  store ptr %16, ptr %6, align 8, !tbaa !69
  %17 = load ptr, ptr %6, align 8, !tbaa !69
  %18 = getelementptr inbounds double, ptr %17, i64 0
  %19 = load double, ptr %18, align 8, !tbaa !72
  store double %19, ptr %5, align 8, !tbaa !72
  store i64 1, ptr %3, align 8, !tbaa !3
  br label %20

20:                                               ; preds = %37, %1
  %21 = load i64, ptr %3, align 8, !tbaa !3
  %22 = load i64, ptr %4, align 8, !tbaa !3
  %23 = icmp slt i64 %21, %22
  br i1 %23, label %24, label %40

24:                                               ; preds = %20
  %25 = load ptr, ptr %6, align 8, !tbaa !69
  %26 = load i64, ptr %3, align 8, !tbaa !3
  %27 = getelementptr inbounds double, ptr %25, i64 %26
  %28 = load double, ptr %27, align 8, !tbaa !72
  %29 = load double, ptr %5, align 8, !tbaa !72
  %30 = fcmp olt double %28, %29
  br i1 %30, label %31, label %36

31:                                               ; preds = %24
  %32 = load ptr, ptr %6, align 8, !tbaa !69
  %33 = load i64, ptr %3, align 8, !tbaa !3
  %34 = getelementptr inbounds double, ptr %32, i64 %33
  %35 = load double, ptr %34, align 8, !tbaa !72
  store double %35, ptr %5, align 8, !tbaa !72
  br label %36

36:                                               ; preds = %31, %24
  br label %37

37:                                               ; preds = %36
  %38 = load i64, ptr %3, align 8, !tbaa !3
  %39 = add nsw i64 %38, 1
  store i64 %39, ptr %3, align 8, !tbaa !3
  br label %20

40:                                               ; preds = %20
  %41 = load double, ptr %5, align 8, !tbaa !72
  call void @llvm.lifetime.end.p0(i64 8, ptr %6) #6
  call void @llvm.lifetime.end.p0(i64 8, ptr %5) #6
  call void @llvm.lifetime.end.p0(i64 8, ptr %4) #6
  call void @llvm.lifetime.end.p0(i64 8, ptr %3) #6
  ret double %41
}